; Function Attrs: mustprogress uwtable
define void @_ZNK2cv5MatOp6invertERKNS_7MatExprEiRS1_(ptr nocapture nonnull readnone align 8 %0, ptr noundef nonnull align 8 dereferenceable(352) %1, i32 noundef %2, ptr noundef nonnull align 8 dereferenceable(352) %3) unnamed_addr #8 align 2 personality ptr @__gxx_personality_v0 {
  %5 = alloca %"class.cv::Mat", align 8
  call void @_ZN2cv3MatC1Ev(ptr noundef nonnull align 8 dereferenceable(96) %5) #21
  %6 = load ptr, ptr %1, align 8
  %7 = load ptr, ptr %6, align 8
  %8 = getelementptr inbounds i8, ptr %7, i64 24
  %9 = load ptr, ptr %8, align 8
  invoke void %9(ptr noundef nonnull align 8 dereferenceable(8) %6, ptr noundef nonnull align 8 dereferenceable(352) %1, ptr noundef nonnull align 8 dereferenceable(96) %5, i32 noundef -1)
          to label %10 unwind label %12

10:                                               ; preds = %4
  invoke void @_ZN2cv12MatOp_Invert8makeExprERNS_7MatExprEiRKNS_3MatE(ptr noundef nonnull align 8 dereferenceable(352) %3, i32 noundef %2, ptr noundef nonnull align 8 dereferenceable(96) %5)
          to label %11 unwind label %12

11:                                               ; preds = %10
  call void @_ZN2cv3MatD1Ev(ptr noundef nonnull align 8 dereferenceable(96) %5) #21
  ret void

12:                                               ; preds = %10, %4
  %13 = landingpad { ptr, i32 }
          cleanup
  call void @_ZN2cv3MatD1Ev(ptr noundef nonnull align 8 dereferenceable(96) %5) #21
  resume { ptr, i32 } %13
}